target datalayout = "e-m:e-p270:32:32-p271:32:32-p272:64:64-i64:64-f80:128-n8:16:32:64-S128"
target triple = "x86_64-pc-linux-gnu"

@.str = private unnamed_addr constant [3 x i8] c"%d\00", align 1
@.str.1 = private unnamed_addr constant [3 x i8] c"%s\00", align 1
@.str.2 = private unnamed_addr constant [3 x i8] c"NO\00", align 1
@.str.3 = private unnamed_addr constant [4 x i8] c"%d\0A\00", align 1
@.str.4 = private unnamed_addr constant [3 x i8] c"%c\00", align 1
@.str.5 = private unnamed_addr constant [2 x i8] c"\0A\00", align 1

; Function Attrs: noinline nounwind uwtable
define dso_local i32 @main(i32 %0, i8** %1) #0 {
  %3 = alloca i32, align 4
  %4 = alloca i32, align 4
  %5 = alloca i8**, align 8
  %6 = alloca [1000 x i8], align 16
  %7 = alloca i32, align 4
  %8 = alloca i32, align 4
  %9 = alloca i32, align 4
  %10 = alloca i32, align 4
  %11 = alloca i32, align 4
  %12 = alloca i32, align 4
  %13 = alloca i32, align 4
  %14 = alloca i32, align 4
  %15 = alloca [1000 x i32], align 16
  store i32 0, i32* %3, align 4
  store i32 %0, i32* %4, align 4
  store i8** %1, i8*** %5, align 8
  store i32 0, i32* %12, align 4
  store i32 0, i32* %14, align 4
  %16 = bitcast [1000 x i32]* %15 to i8*
  call void @llvm.memset.p0i8.i64(i8* align 16 %16, i8 0, i64 4000, i1 false)
  %17 = bitcast i8* %16 to <{ i32, [999 x i32] }>*
  %18 = getelementptr inbounds <{ i32, [999 x i32] }>, <{ i32, [999 x i32] }>* %17, i32 0, i32 0
  store i32 1, i32* %18, align 16
  %19 = call i32 (i8*, ...) @__isoc99_scanf(i8* getelementptr inbounds ([3 x i8], [3 x i8]* @.str, i64 0, i64 0), i32* %7)
  %20 = getelementptr inbounds [1000 x i8], [1000 x i8]* %6, i64 0, i64 0
  %21 = call i32 (i8*, ...) @__isoc99_scanf(i8* getelementptr inbounds ([3 x i8], [3 x i8]* @.str.1, i64 0, i64 0), i8* %20)
  %22 = getelementptr inbounds [1000 x i8], [1000 x i8]* %6, i64 0, i64 0
  %23 = call i64 @strlen(i8* %22) #4
  %24 = trunc i64 %23 to i32
  store i32 %24, i32* %11, align 4
  store i32 0, i32* %8, align 4
  br label %25

25:                                               ; preds = %32, %2
  %26 = load i32, i32* %8, align 4
  %27 = icmp slt i32 %26, 1000
  br i1 %27, label %28, label %35

28:                                               ; preds = %25
  %29 = load i32, i32* %8, align 4
  %30 = sext i32 %29 to i64
  %31 = getelementptr inbounds [1000 x i32], [1000 x i32]* %15, i64 0, i64 %30
  store i32 1, i32* %31, align 4
  br label %32

32:                                               ; preds = %28
  %33 = load i32, i32* %8, align 4
  %34 = add nsw i32 %33, 1
  store i32 %34, i32* %8, align 4
  br label %25

35:                                               ; preds = %25
  store i32 0, i32* %8, align 4
  br label %36

36:                                               ; preds = %105, %35
  %37 = load i32, i32* %8, align 4
  %38 = load i32, i32* %11, align 4
  %39 = load i32, i32* %7, align 4
  %40 = sub nsw i32 %38, %39
  %41 = icmp slt i32 %37, %40
  br i1 %41, label %42, label %108

42:                                               ; preds = %36
  %43 = load i32, i32* %8, align 4
  %44 = add nsw i32 %43, 1
  store i32 %44, i32* %9, align 4
  br label %45

45:                                               ; preds = %101, %42
  %46 = load i32, i32* %9, align 4
  %47 = load i32, i32* %11, align 4
  %48 = icmp slt i32 %46, %47
  br i1 %48, label %49, label %104

49:                                               ; preds = %45
  store i32 0, i32* %12, align 4
  %50 = load i32, i32* %8, align 4
  store i32 %50, i32* %10, align 4
  br label %51

51:                                               ; preds = %77, %49
  %52 = load i32, i32* %10, align 4
  %53 = load i32, i32* %8, align 4
  %54 = load i32, i32* %7, align 4
  %55 = add nsw i32 %53, %54
  %56 = icmp slt i32 %52, %55
  br i1 %56, label %57, label %80

57:                                               ; preds = %51
  %58 = load i32, i32* %10, align 4
  %59 = sext i32 %58 to i64
  %60 = getelementptr inbounds [1000 x i8], [1000 x i8]* %6, i64 0, i64 %59
  %61 = load i8, i8* %60, align 1
  %62 = sext i8 %61 to i32
  %63 = load i32, i32* %9, align 4
  %64 = sext i32 %63 to i64
  %65 = getelementptr inbounds [1000 x i8], [1000 x i8]* %6, i64 0, i64 %64
  %66 = load i8, i8* %65, align 1
  %67 = sext i8 %66 to i32
  %68 = icmp ne i32 %62, %67
  br i1 %68, label %69, label %71

69:                                               ; preds = %57
  %70 = load i32, i32* %12, align 4
  store i32 %70, i32* %13, align 4
  store i32 0, i32* %12, align 4
  br label %80

71:                                               ; preds = %57
  %72 = load i32, i32* %12, align 4
  %73 = add nsw i32 %72, 1
  store i32 %73, i32* %12, align 4
  %74 = load i32, i32* %9, align 4
  %75 = add nsw i32 %74, 1
  store i32 %75, i32* %9, align 4
  br label %76

76:                                               ; preds = %71
  br label %77

77:                                               ; preds = %76
  %78 = load i32, i32* %10, align 4
  %79 = add nsw i32 %78, 1
  store i32 %79, i32* %10, align 4
  br label %51

80:                                               ; preds = %69, %51
  %81 = load i32, i32* %12, align 4
  %82 = load i32, i32* %7, align 4
  %83 = icmp eq i32 %81, %82
  br i1 %83, label %84, label %93

84:                                               ; preds = %80
  %85 = load i32, i32* %8, align 4
  %86 = sext i32 %85 to i64
  %87 = getelementptr inbounds [1000 x i32], [1000 x i32]* %15, i64 0, i64 %86
  %88 = load i32, i32* %87, align 4
  %89 = add nsw i32 %88, 1
  store i32 %89, i32* %87, align 4
  %90 = load i32, i32* %9, align 4
  %91 = load i32, i32* %7, align 4
  %92 = sub nsw i32 %90, %91
  store i32 %92, i32* %9, align 4
  br label %100

93:                                               ; preds = %80
  %94 = load i32, i32* %9, align 4
  %95 = load i32, i32* %13, align 4
  %96 = sub nsw i32 %94, %95
  store i32 %96, i32* %9, align 4
  %97 = load i32, i32* %10, align 4
  %98 = load i32, i32* %13, align 4
  %99 = sub nsw i32 %97, %98
  store i32 %99, i32* %10, align 4
  br label %100

100:                                              ; preds = %93, %84
  br label %101

101:                                              ; preds = %100
  %102 = load i32, i32* %9, align 4
  %103 = add nsw i32 %102, 1
  store i32 %103, i32* %9, align 4
  br label %45

104:                                              ; preds = %45
  br label %105

105:                                              ; preds = %104
  %106 = load i32, i32* %8, align 4
  %107 = add nsw i32 %106, 1
  store i32 %107, i32* %8, align 4
  br label %36

108:                                              ; preds = %36
  store i32 0, i32* %8, align 4
  br label %109

109:                                              ; preds = %125, %108
  %110 = load i32, i32* %8, align 4
  %111 = icmp slt i32 %110, 1000
  br i1 %111, label %112, label %128

112:                                              ; preds = %109
  %113 = load i32, i32* %14, align 4
  %114 = load i32, i32* %8, align 4
  %115 = sext i32 %114 to i64
  %116 = getelementptr inbounds [1000 x i32], [1000 x i32]* %15, i64 0, i64 %115
  %117 = load i32, i32* %116, align 4
  %118 = icmp slt i32 %113, %117
  br i1 %118, label %119, label %124

119:                                              ; preds = %112
  %120 = load i32, i32* %8, align 4
  %121 = sext i32 %120 to i64
  %122 = getelementptr inbounds [1000 x i32], [1000 x i32]* %15, i64 0, i64 %121
  %123 = load i32, i32* %122, align 4
  store i32 %123, i32* %14, align 4
  br label %124

124:                                              ; preds = %119, %112
  br label %125

125:                                              ; preds = %124
  %126 = load i32, i32* %8, align 4
  %127 = add nsw i32 %126, 1
  store i32 %127, i32* %8, align 4
  br label %109

128:                                              ; preds = %109
  %129 = load i32, i32* %14, align 4
  %130 = icmp eq i32 %129, 1
  br i1 %130, label %131, label %133

131:                                              ; preds = %128
  %132 = call i32 (i8*, ...) @printf(i8* getelementptr inbounds ([3 x i8], [3 x i8]* @.str.2, i64 0, i64 0))
  br label %171

133:                                              ; preds = %128
  %134 = load i32, i32* %14, align 4
  %135 = call i32 (i8*, ...) @printf(i8* getelementptr inbounds ([4 x i8], [4 x i8]* @.str.3, i64 0, i64 0), i32 %134)
  store i32 0, i32* %8, align 4
  br label %136

136:                                              ; preds = %167, %133
  %137 = load i32, i32* %8, align 4
  %138 = icmp slt i32 %137, 1000
  br i1 %138, label %139, label %170

139:                                              ; preds = %136
  %140 = load i32, i32* %8, align 4
  %141 = sext i32 %140 to i64
  %142 = getelementptr inbounds [1000 x i32], [1000 x i32]* %15, i64 0, i64 %141
  %143 = load i32, i32* %142, align 4
  %144 = load i32, i32* %14, align 4
  %145 = icmp eq i32 %143, %144
  br i1 %145, label %146, label %166

146:                                              ; preds = %139
  %147 = load i32, i32* %8, align 4
  store i32 %147, i32* %9, align 4
  br label %148

148:                                              ; preds = %161, %146
  %149 = load i32, i32* %9, align 4
  %150 = load i32, i32* %8, align 4
  %151 = load i32, i32* %7, align 4
  %152 = add nsw i32 %150, %151
  %153 = icmp slt i32 %149, %152
  br i1 %153, label %154, label %164

154:                                              ; preds = %148
  %155 = load i32, i32* %9, align 4
  %156 = sext i32 %155 to i64
  %157 = getelementptr inbounds [1000 x i8], [1000 x i8]* %6, i64 0, i64 %156
  %158 = load i8, i8* %157, align 1
  %159 = sext i8 %158 to i32
  %160 = call i32 (i8*, ...) @printf(i8* getelementptr inbounds ([3 x i8], [3 x i8]* @.str.4, i64 0, i64 0), i32 %159)
  br label %161

161:                                              ; preds = %154
  %162 = load i32, i32* %9, align 4
  %163 = add nsw i32 %162, 1
  store i32 %163, i32* %9, align 4
  br label %148

164:                                              ; preds = %148
  %165 = call i32 (i8*, ...) @printf(i8* getelementptr inbounds ([2 x i8], [2 x i8]* @.str.5, i64 0, i64 0))
  br label %166

166:                                              ; preds = %164, %139
  br label %167

167:                                              ; preds = %166
  %168 = load i32, i32* %8, align 4
  %169 = add nsw i32 %168, 1
  store i32 %169, i32* %8, align 4
  br label %136

170:                                              ; preds = %136
  br label %171

171:                                              ; preds = %170, %131
  ret i32 0
}